target datalayout = "e-m:e-p270:32:32-p271:32:32-p272:64:64-i64:64-i128:128-f80:128-n8:16:32:64-S128"
target triple = "x86_64-pc-linux-gnu"

%struct.LUTState = type { i16, i16, i16, i16, i16, i8, i8, i8, i8, i16 }

; Function Attrs: nounwind uwtable
define i32 @ff_dirac_golomb_read_16bit(ptr noundef %0, i32 noundef %1, ptr noundef %2, i32 noundef %3) #0 {
  %5 = alloca i32, align 4
  %6 = alloca ptr, align 8
  %7 = alloca i32, align 4
  %8 = alloca ptr, align 8
  %9 = alloca i32, align 4
  %10 = alloca %struct.LUTState, align 2
  %11 = alloca ptr, align 8
  %12 = alloca ptr, align 8
  %13 = alloca i16, align 2
  %14 = alloca i32, align 4
  %15 = alloca i32, align 4
  store ptr %0, ptr %6, align 8, !tbaa !4
  store i32 %1, ptr %7, align 4, !tbaa !9
  store ptr %2, ptr %8, align 8, !tbaa !4
  store i32 %3, ptr %9, align 4, !tbaa !9
  call void @llvm.lifetime.start.p0(i64 16, ptr %10) #3
  %16 = load ptr, ptr %6, align 8, !tbaa !4
  %17 = getelementptr inbounds nuw i8, ptr %16, i32 1
  store ptr %17, ptr %6, align 8, !tbaa !4
  %18 = load i8, ptr %16, align 1, !tbaa !11
  %19 = zext i8 %18 to i64
  %20 = getelementptr inbounds nuw [1024 x %struct.LUTState], ptr @dirac_golomb_lut, i64 0, i64 %19
  call void @llvm.memcpy.p0.p0.i64(ptr align 2 %10, ptr align 16 %20, i64 16, i1 false), !tbaa.struct !12
  call void @llvm.lifetime.start.p0(i64 8, ptr %11) #3
  %21 = load ptr, ptr %8, align 8, !tbaa !4
  store ptr %21, ptr %11, align 8, !tbaa !15
  call void @llvm.lifetime.start.p0(i64 8, ptr %12) #3
  %22 = load ptr, ptr %11, align 8, !tbaa !15
  %23 = load i32, ptr %9, align 4, !tbaa !9
  %24 = sext i32 %23 to i64
  %25 = getelementptr inbounds i16, ptr %22, i64 %24
  store ptr %25, ptr %12, align 8, !tbaa !15
  call void @llvm.lifetime.start.p0(i64 2, ptr %13) #3
  store i16 0, ptr %13, align 2, !tbaa !13
  call void @llvm.lifetime.start.p0(i64 4, ptr %14) #3
  store i32 1, ptr %14, align 4, !tbaa !9
  br label %26

26:                                               ; preds = %111, %4
  %27 = load i32, ptr %14, align 4, !tbaa !9
  %28 = load i32, ptr %7, align 4, !tbaa !9
  %29 = icmp slt i32 %27, %28
  br i1 %29, label %31, label %30

30:                                               ; preds = %26
  store i32 2, ptr %15, align 4
  br label %114

31:                                               ; preds = %26
  br label %32

32:                                               ; preds = %31
  %33 = getelementptr inbounds nuw %struct.LUTState, ptr %10, i32 0, i32 5
  %34 = load i8, ptr %33, align 2, !tbaa !17
  %35 = zext i8 %34 to i32
  %36 = load i16, ptr %13, align 2, !tbaa !13
  %37 = zext i16 %36 to i32
  %38 = shl i32 %37, %35
  %39 = trunc i32 %38 to i16
  store i16 %39, ptr %13, align 2, !tbaa !13
  %40 = getelementptr inbounds nuw %struct.LUTState, ptr %10, i32 0, i32 0
  %41 = load i16, ptr %40, align 2, !tbaa !19
  %42 = sext i16 %41 to i32
  %43 = load i16, ptr %13, align 2, !tbaa !13
  %44 = zext i16 %43 to i32
  %45 = or i32 %44, %42
  %46 = trunc i32 %45 to i16
  store i16 %46, ptr %13, align 2, !tbaa !13
  %47 = load i16, ptr %13, align 2, !tbaa !13
  %48 = zext i16 %47 to i32
  %49 = sub nsw i32 %48, 1
  %50 = getelementptr inbounds nuw %struct.LUTState, ptr %10, i32 0, i32 6
  %51 = load i8, ptr %50, align 1, !tbaa !20
  %52 = sext i8 %51 to i32
  %53 = mul nsw i32 %49, %52
  %54 = trunc i32 %53 to i16
  %55 = load ptr, ptr %11, align 8, !tbaa !15
  %56 = getelementptr inbounds i16, ptr %55, i64 0
  store i16 %54, ptr %56, align 2, !tbaa !13
  %57 = getelementptr inbounds nuw %struct.LUTState, ptr %10, i32 0, i32 1
  %58 = load i16, ptr %57, align 2, !tbaa !21
  %59 = load ptr, ptr %11, align 8, !tbaa !15
  %60 = getelementptr inbounds i16, ptr %59, i64 1
  store i16 %58, ptr %60, align 2, !tbaa !13
  %61 = getelementptr inbounds nuw %struct.LUTState, ptr %10, i32 0, i32 2
  %62 = load i16, ptr %61, align 2, !tbaa !22
  %63 = load ptr, ptr %11, align 8, !tbaa !15
  %64 = getelementptr inbounds i16, ptr %63, i64 2
  store i16 %62, ptr %64, align 2, !tbaa !13
  %65 = getelementptr inbounds nuw %struct.LUTState, ptr %10, i32 0, i32 3
  %66 = load i16, ptr %65, align 2, !tbaa !23
  %67 = load ptr, ptr %11, align 8, !tbaa !15
  %68 = getelementptr inbounds i16, ptr %67, i64 3
  store i16 %66, ptr %68, align 2, !tbaa !13
  %69 = getelementptr inbounds nuw %struct.LUTState, ptr %10, i32 0, i32 4
  %70 = load i16, ptr %69, align 2, !tbaa !24
  %71 = load ptr, ptr %11, align 8, !tbaa !15
  %72 = getelementptr inbounds i16, ptr %71, i64 4
  store i16 %70, ptr %72, align 2, !tbaa !13
  %73 = load ptr, ptr %11, align 8, !tbaa !15
  %74 = getelementptr inbounds i16, ptr %73, i64 5
  store i16 0, ptr %74, align 2, !tbaa !13
  %75 = load ptr, ptr %11, align 8, !tbaa !15
  %76 = getelementptr inbounds i16, ptr %75, i64 6
  store i16 0, ptr %76, align 2, !tbaa !13
  %77 = load ptr, ptr %11, align 8, !tbaa !15
  %78 = getelementptr inbounds i16, ptr %77, i64 7
  store i16 0, ptr %78, align 2, !tbaa !13
  %79 = getelementptr inbounds nuw %struct.LUTState, ptr %10, i32 0, i32 7
  %80 = load i8, ptr %79, align 2, !tbaa !25
  %81 = icmp ne i8 %80, 0
  br i1 %81, label %82, label %86

82:                                               ; preds = %32
  %83 = getelementptr inbounds nuw %struct.LUTState, ptr %10, i32 0, i32 8
  %84 = load i8, ptr %83, align 1, !tbaa !26
  %85 = zext i8 %84 to i16
  store i16 %85, ptr %13, align 2, !tbaa !13
  br label %86

86:                                               ; preds = %82, %32
  %87 = getelementptr inbounds nuw %struct.LUTState, ptr %10, i32 0, i32 7
  %88 = load i8, ptr %87, align 2, !tbaa !25
  %89 = sext i8 %88 to i32
  %90 = load ptr, ptr %11, align 8, !tbaa !15
  %91 = sext i32 %89 to i64
  %92 = getelementptr inbounds i16, ptr %90, i64 %91
  store ptr %92, ptr %11, align 8, !tbaa !15
  %93 = load ptr, ptr %11, align 8, !tbaa !15
  %94 = load ptr, ptr %12, align 8, !tbaa !15
  %95 = icmp uge ptr %93, %94
  br i1 %95, label %96, label %98

96:                                               ; preds = %86
  %97 = load i32, ptr %9, align 4, !tbaa !9
  store i32 %97, ptr %5, align 4
  store i32 1, ptr %15, align 4
  br label %114

98:                                               ; preds = %86
  %99 = getelementptr inbounds nuw %struct.LUTState, ptr %10, i32 0, i32 9
  %100 = load i16, ptr %99, align 2, !tbaa !27
  %101 = zext i16 %100 to i32
  %102 = load ptr, ptr %6, align 8, !tbaa !4
  %103 = getelementptr inbounds nuw i8, ptr %102, i32 1
  store ptr %103, ptr %6, align 8, !tbaa !4
  %104 = load i8, ptr %102, align 1, !tbaa !11
  %105 = zext i8 %104 to i32
  %106 = add nsw i32 %101, %105
  %107 = sext i32 %106 to i64
  %108 = getelementptr inbounds [1024 x %struct.LUTState], ptr @dirac_golomb_lut, i64 0, i64 %107
  call void @llvm.memcpy.p0.p0.i64(ptr align 2 %10, ptr align 16 %108, i64 16, i1 false), !tbaa.struct !12
  br label %109

109:                                              ; preds = %98
  br label %110

110:                                              ; preds = %109
  br label %111

111:                                              ; preds = %110
  %112 = load i32, ptr %14, align 4, !tbaa !9
  %113 = add nsw i32 %112, 1
  store i32 %113, ptr %14, align 4, !tbaa !9
  br label %26, !llvm.loop !28

114:                                              ; preds = %96, %30
  call void @llvm.lifetime.end.p0(i64 4, ptr %14) #3
  %115 = load i32, ptr %15, align 4
  switch i32 %115, label %230 [
    i32 2, label %116
  ]

116:                                              ; preds = %114
  br label %117

117:                                              ; preds = %116
  %118 = getelementptr inbounds nuw %struct.LUTState, ptr %10, i32 0, i32 5
  %119 = load i8, ptr %118, align 2, !tbaa !17
  %120 = zext i8 %119 to i32
  %121 = load i16, ptr %13, align 2, !tbaa !13
  %122 = zext i16 %121 to i32
  %123 = shl i32 %122, %120
  %124 = trunc i32 %123 to i16
  store i16 %124, ptr %13, align 2, !tbaa !13
  %125 = getelementptr inbounds nuw %struct.LUTState, ptr %10, i32 0, i32 0
  %126 = load i16, ptr %125, align 2, !tbaa !19
  %127 = sext i16 %126 to i32
  %128 = load i16, ptr %13, align 2, !tbaa !13
  %129 = zext i16 %128 to i32
  %130 = or i32 %129, %127
  %131 = trunc i32 %130 to i16
  store i16 %131, ptr %13, align 2, !tbaa !13
  %132 = load i16, ptr %13, align 2, !tbaa !13
  %133 = zext i16 %132 to i32
  %134 = sub nsw i32 %133, 1
  %135 = getelementptr inbounds nuw %struct.LUTState, ptr %10, i32 0, i32 6
  %136 = load i8, ptr %135, align 1, !tbaa !20
  %137 = sext i8 %136 to i32
  %138 = mul nsw i32 %134, %137
  %139 = trunc i32 %138 to i16
  %140 = load ptr, ptr %11, align 8, !tbaa !15
  %141 = getelementptr inbounds i16, ptr %140, i64 0
  store i16 %139, ptr %141, align 2, !tbaa !13
  %142 = getelementptr inbounds nuw %struct.LUTState, ptr %10, i32 0, i32 1
  %143 = load i16, ptr %142, align 2, !tbaa !21
  %144 = load ptr, ptr %11, align 8, !tbaa !15
  %145 = getelementptr inbounds i16, ptr %144, i64 1
  store i16 %143, ptr %145, align 2, !tbaa !13
  %146 = getelementptr inbounds nuw %struct.LUTState, ptr %10, i32 0, i32 2
  %147 = load i16, ptr %146, align 2, !tbaa !22
  %148 = load ptr, ptr %11, align 8, !tbaa !15
  %149 = getelementptr inbounds i16, ptr %148, i64 2
  store i16 %147, ptr %149, align 2, !tbaa !13
  %150 = getelementptr inbounds nuw %struct.LUTState, ptr %10, i32 0, i32 3
  %151 = load i16, ptr %150, align 2, !tbaa !23
  %152 = load ptr, ptr %11, align 8, !tbaa !15
  %153 = getelementptr inbounds i16, ptr %152, i64 3
  store i16 %151, ptr %153, align 2, !tbaa !13
  %154 = getelementptr inbounds nuw %struct.LUTState, ptr %10, i32 0, i32 4
  %155 = load i16, ptr %154, align 2, !tbaa !24
  %156 = load ptr, ptr %11, align 8, !tbaa !15
  %157 = getelementptr inbounds i16, ptr %156, i64 4
  store i16 %155, ptr %157, align 2, !tbaa !13
  %158 = load ptr, ptr %11, align 8, !tbaa !15
  %159 = getelementptr inbounds i16, ptr %158, i64 5
  store i16 0, ptr %159, align 2, !tbaa !13
  %160 = load ptr, ptr %11, align 8, !tbaa !15
  %161 = getelementptr inbounds i16, ptr %160, i64 6
  store i16 0, ptr %161, align 2, !tbaa !13
  %162 = load ptr, ptr %11, align 8, !tbaa !15
  %163 = getelementptr inbounds i16, ptr %162, i64 7
  store i16 0, ptr %163, align 2, !tbaa !13
  %164 = getelementptr inbounds nuw %struct.LUTState, ptr %10, i32 0, i32 7
  %165 = load i8, ptr %164, align 2, !tbaa !25
  %166 = icmp ne i8 %165, 0
  br i1 %166, label %167, label %171

167:                                              ; preds = %117
  %168 = getelementptr inbounds nuw %struct.LUTState, ptr %10, i32 0, i32 8
  %169 = load i8, ptr %168, align 1, !tbaa !26
  %170 = zext i8 %169 to i16
  store i16 %170, ptr %13, align 2, !tbaa !13
  br label %171

171:                                              ; preds = %167, %117
  %172 = getelementptr inbounds nuw %struct.LUTState, ptr %10, i32 0, i32 7
  %173 = load i8, ptr %172, align 2, !tbaa !25
  %174 = sext i8 %173 to i32
  %175 = load ptr, ptr %11, align 8, !tbaa !15
  %176 = sext i32 %174 to i64
  %177 = getelementptr inbounds i16, ptr %175, i64 %176
  store ptr %177, ptr %11, align 8, !tbaa !15
  %178 = load ptr, ptr %11, align 8, !tbaa !15
  %179 = load ptr, ptr %12, align 8, !tbaa !15
  %180 = icmp uge ptr %178, %179
  br i1 %180, label %181, label %183

181:                                              ; preds = %171
  %182 = load i32, ptr %9, align 4, !tbaa !9
  store i32 %182, ptr %5, align 4
  store i32 1, ptr %15, align 4
  br label %230

183:                                              ; preds = %171
  %184 = getelementptr inbounds nuw %struct.LUTState, ptr %10, i32 0, i32 9
  %185 = load i16, ptr %184, align 2, !tbaa !27
  %186 = zext i16 %185 to i32
  %187 = load ptr, ptr %6, align 8, !tbaa !4
  %188 = getelementptr inbounds nuw i8, ptr %187, i32 1
  store ptr %188, ptr %6, align 8, !tbaa !4
  %189 = load i8, ptr %187, align 1, !tbaa !11
  %190 = zext i8 %189 to i32
  %191 = add nsw i32 %186, %190
  %192 = sext i32 %191 to i64
  %193 = getelementptr inbounds [1024 x %struct.LUTState], ptr @dirac_golomb_lut, i64 0, i64 %192
  call void @llvm.memcpy.p0.p0.i64(ptr align 2 %10, ptr align 16 %193, i64 16, i1 false), !tbaa.struct !12
  br label %194

194:                                              ; preds = %183
  br label %195

195:                                              ; preds = %194
  %196 = getelementptr inbounds nuw %struct.LUTState, ptr %10, i32 0, i32 9
  %197 = load i16, ptr %196, align 2, !tbaa !27
  %198 = zext i16 %197 to i32
  %199 = icmp ne i32 %198, 0
  br i1 %199, label %200, label %220

200:                                              ; preds = %195
  %201 = getelementptr inbounds nuw %struct.LUTState, ptr %10, i32 0, i32 9
  %202 = load i16, ptr %201, align 2, !tbaa !27
  %203 = zext i16 %202 to i32
  %204 = icmp ne i32 %203, 768
  br i1 %204, label %205, label %210

205:                                              ; preds = %200
  %206 = load i16, ptr %13, align 2, !tbaa !13
  %207 = zext i16 %206 to i32
  %208 = shl i32 %207, 1
  %209 = or i32 %208, 1
  br label %213

210:                                              ; preds = %200
  %211 = load i16, ptr %13, align 2, !tbaa !13
  %212 = zext i16 %211 to i32
  br label %213

213:                                              ; preds = %210, %205
  %214 = phi i32 [ %209, %205 ], [ %212, %210 ]
  %215 = sub nsw i32 %214, 1
  %216 = sub nsw i32 0, %215
  %217 = trunc i32 %216 to i16
  %218 = load ptr, ptr %11, align 8, !tbaa !15
  %219 = getelementptr inbounds nuw i16, ptr %218, i32 1
  store ptr %219, ptr %11, align 8, !tbaa !15
  store i16 %217, ptr %218, align 2, !tbaa !13
  br label %220

220:                                              ; preds = %213, %195
  %221 = load i32, ptr %9, align 4, !tbaa !9
  %222 = load ptr, ptr %12, align 8, !tbaa !15
  %223 = load ptr, ptr %11, align 8, !tbaa !15
  %224 = ptrtoint ptr %222 to i64
  %225 = ptrtoint ptr %223 to i64
  %226 = sub i64 %224, %225
  %227 = sdiv exact i64 %226, 2
  %228 = trunc i64 %227 to i32
  %229 = sub nsw i32 %221, %228
  store i32 %229, ptr %5, align 4
  store i32 1, ptr %15, align 4
  br label %230

230:                                              ; preds = %220, %181, %114
  call void @llvm.lifetime.end.p0(i64 2, ptr %13) #3
  call void @llvm.lifetime.end.p0(i64 8, ptr %12) #3
  call void @llvm.lifetime.end.p0(i64 8, ptr %11) #3
  call void @llvm.lifetime.end.p0(i64 16, ptr %10) #3
  %231 = load i32, ptr %5, align 4
  ret i32 %231
}