; Function Attrs: nofree norecurse nosync nounwind memory(argmem: readwrite) uwtable
define i32 @ff_dirac_golomb_read_16bit(ptr noundef readonly captures(none) %0, i32 noundef %1, ptr noundef %2, i32 noundef %3) local_unnamed_addr #0 {
  %5 = load i8, ptr %0, align 1, !tbaa !4
  %6 = zext i8 %5 to i64
  %7 = sext i32 %3 to i64
  %8 = getelementptr inbounds i16, ptr %2, i64 %7
  %smax = tail call i32 @llvm.smax.i32(i32 %1, i32 1)
  br label %9

9:                                                ; preds = %29, %4
  %.pn = phi ptr [ %0, %4 ], [ %.0105, %29 ]
  %10 = phi i64 [ %6, %4 ], [ %34, %29 ]
  %.0102 = phi ptr [ %2, %4 ], [ %28, %29 ]
  %.099 = phi i16 [ 0, %4 ], [ %spec.select, %29 ]
  %.098 = phi i32 [ 1, %4 ], [ %35, %29 ]
  %.0105 = getelementptr inbounds nuw i8, ptr %.pn, i64 1
  %.sroa.0.0.in = getelementptr inbounds nuw [1024 x %struct.LUTState], ptr @dirac_golomb_lut, i64 0, i64 %10
  %.sroa.0.0 = load i16, ptr %.sroa.0.0.in, align 16, !tbaa !7
  %.sroa.7.0.in = getelementptr inbounds nuw [1024 x %struct.LUTState], ptr @dirac_golomb_lut, i64 0, i64 %10, i32 1
  %.sroa.7.0 = load i16, ptr %.sroa.7.0.in, align 2, !tbaa !7
  %.sroa.9.0.in = getelementptr inbounds nuw [1024 x %struct.LUTState], ptr @dirac_golomb_lut, i64 0, i64 %10, i32 2
  %.sroa.9.0 = load i16, ptr %.sroa.9.0.in, align 4, !tbaa !7
  %.sroa.11.0.in = getelementptr inbounds nuw [1024 x %struct.LUTState], ptr @dirac_golomb_lut, i64 0, i64 %10, i32 3
  %.sroa.11.0 = load i16, ptr %.sroa.11.0.in, align 2, !tbaa !7
  %.sroa.13.0.in = getelementptr inbounds nuw [1024 x %struct.LUTState], ptr @dirac_golomb_lut, i64 0, i64 %10, i32 4
  %.sroa.13.0 = load i16, ptr %.sroa.13.0.in, align 8, !tbaa !7
  %.sroa.15.0.in = getelementptr inbounds nuw [1024 x %struct.LUTState], ptr @dirac_golomb_lut, i64 0, i64 %10, i32 5
  %.sroa.15.0 = load i8, ptr %.sroa.15.0.in, align 2, !tbaa !4
  %.sroa.17.0.in = getelementptr inbounds nuw [1024 x %struct.LUTState], ptr @dirac_golomb_lut, i64 0, i64 %10, i32 6
  %.sroa.17.0 = load i8, ptr %.sroa.17.0.in, align 1, !tbaa !4
  %.sroa.19.0.in = getelementptr inbounds nuw [1024 x %struct.LUTState], ptr @dirac_golomb_lut, i64 0, i64 %10, i32 7
  %.sroa.19.0 = load i8, ptr %.sroa.19.0.in, align 4, !tbaa !4
  %.sroa.23.0.in = getelementptr inbounds nuw [1024 x %struct.LUTState], ptr @dirac_golomb_lut, i64 0, i64 %10, i32 8
  %.sroa.23.0 = load i8, ptr %.sroa.23.0.in, align 1, !tbaa !4
  %.sroa.25.0.in = getelementptr inbounds nuw [1024 x %struct.LUTState], ptr @dirac_golomb_lut, i64 0, i64 %10, i32 9
  %.sroa.25.0 = load i16, ptr %.sroa.25.0.in, align 2, !tbaa !7
  %exitcond.not = icmp eq i32 %.098, %smax
  %11 = zext nneg i8 %.sroa.15.0 to i32
  %12 = zext i16 %.099 to i32
  %13 = shl i32 %12, %11
  %14 = trunc i32 %13 to i16
  %15 = or i16 %.sroa.0.0, %14
  %16 = add i16 %15, -1
  %17 = sext i8 %.sroa.17.0 to i16
  %18 = mul i16 %16, %17
  store i16 %18, ptr %.0102, align 2, !tbaa !7
  %19 = getelementptr inbounds nuw i8, ptr %.0102, i64 2
  store i16 %.sroa.7.0, ptr %19, align 2, !tbaa !7
  %20 = getelementptr inbounds nuw i8, ptr %.0102, i64 4
  store i16 %.sroa.9.0, ptr %20, align 2, !tbaa !7
  %21 = getelementptr inbounds nuw i8, ptr %.0102, i64 6
  store i16 %.sroa.11.0, ptr %21, align 2, !tbaa !7
  %22 = getelementptr inbounds nuw i8, ptr %.0102, i64 8
  store i16 %.sroa.13.0, ptr %22, align 2, !tbaa !7
  %23 = getelementptr inbounds nuw i8, ptr %.0102, i64 10
  store i16 0, ptr %23, align 2, !tbaa !7
  %24 = getelementptr inbounds nuw i8, ptr %.0102, i64 12
  store i16 0, ptr %24, align 2, !tbaa !7
  %25 = getelementptr inbounds nuw i8, ptr %.0102, i64 14
  store i16 0, ptr %25, align 2, !tbaa !7
  br i1 %exitcond.not, label %36, label %26

26:                                               ; preds = %9
  %27 = sext i8 %.sroa.19.0 to i64
  %28 = getelementptr inbounds i16, ptr %.0102, i64 %27
  %.not111 = icmp ult ptr %28, %8
  br i1 %.not111, label %29, label %.thread

29:                                               ; preds = %26
  %.not = icmp eq i8 %.sroa.19.0, 0
  %30 = zext i8 %.sroa.23.0 to i16
  %spec.select = select i1 %.not, i16 %15, i16 %30
  %31 = zext i16 %.sroa.25.0 to i64
  %32 = load i8, ptr %.0105, align 1, !tbaa !4
  %33 = zext i8 %32 to i64
  %34 = add nuw nsw i64 %33, %31
  %35 = add nuw i32 %.098, 1
  br label %9, !llvm.loop !9

36:                                               ; preds = %9
  %.not113 = icmp eq i8 %.sroa.19.0, 0
  %37 = zext i8 %.sroa.23.0 to i16
  %spec.select117 = select i1 %.not113, i16 %15, i16 %37
  %38 = sext i8 %.sroa.19.0 to i64
  %39 = getelementptr inbounds i16, ptr %.0102, i64 %38
  %.not114 = icmp ult ptr %39, %8
  br i1 %.not114, label %40, label %.thread

40:                                               ; preds = %36
  %41 = zext i16 %.sroa.25.0 to i64
  %42 = load i8, ptr %.0105, align 1, !tbaa !4
  %43 = zext i8 %42 to i64
  %44 = add nuw nsw i64 %43, %41
  %.sroa.25.0..sroa_idx83 = getelementptr inbounds nuw [1024 x %struct.LUTState], ptr @dirac_golomb_lut, i64 0, i64 %44, i32 9
  %.sroa.25.0.copyload84 = load i16, ptr %.sroa.25.0..sroa_idx83, align 2, !tbaa !7
  %.not115 = icmp eq i16 %.sroa.25.0.copyload84, 0
  br i1 %.not115, label %51, label %45

45:                                               ; preds = %40
  %.not116 = icmp eq i16 %.sroa.25.0.copyload84, 768
  %46 = shl i16 %spec.select117, 1
  %47 = or disjoint i16 %46, 1
  %48 = select i1 %.not116, i16 %spec.select117, i16 %47
  %49 = sub i16 1, %48
  %50 = getelementptr inbounds nuw i8, ptr %39, i64 2
  store i16 %49, ptr %39, align 2, !tbaa !7
  br label %51

51:                                               ; preds = %45, %40
  %.2104 = phi ptr [ %50, %45 ], [ %39, %40 ]
  %52 = ptrtoint ptr %8 to i64
  %53 = ptrtoint ptr %.2104 to i64
  %54 = sub i64 %52, %53
  %55 = lshr exact i64 %54, 1
  %56 = trunc i64 %55 to i32
  %57 = sub nsw i32 %3, %56
  br label %.thread

.thread:                                          ; preds = %26, %36, %51
  %.1101 = phi i32 [ %57, %51 ], [ %3, %36 ], [ %3, %26 ]
  ret i32 %.1101
}